; Function Attrs: inlinehint nofree norecurse nosync nounwind memory(read, argmem: readwrite, inaccessiblemem: none) uwtable
define internal fastcc range(i32 0, 2) i32 @Psr_ManUtilSkipUntil(ptr noundef nonnull captures(none) %0) unnamed_addr #6 {
  %2 = getelementptr inbounds nuw i8, ptr %0, i64 24
  %3 = getelementptr inbounds nuw i8, ptr %0, i64 16
  %4 = load ptr, ptr %3, align 8, !tbaa !21
  %.promoted = load ptr, ptr %2, align 8, !tbaa !13
  %5 = icmp ult ptr %.promoted, %4
  br i1 %5, label %.lr.ph, label %._crit_edge

.lr.ph:                                           ; preds = %1, %.backedge
  %.val8.i2227 = phi ptr [ %.sink, %.backedge ], [ %.promoted, %1 ]
  %.val.val = load i8, ptr %.val8.i2227, align 1, !tbaa !20
  switch i8 %.val.val, label %.loopexit16 [
    i8 59, label %._crit_edge
    i8 47, label %6
  ]

6:                                                ; preds = %.lr.ph
  %7 = getelementptr i8, ptr %.val8.i2227, i64 1
  %.val25.val.i = load i8, ptr %7, align 1, !tbaa !20
  switch i8 %.val25.val.i, label %.loopexit [
    i8 47, label %8
    i8 42, label %13
  ]

8:                                                ; preds = %6
  %9 = getelementptr inbounds nuw i8, ptr %.val8.i2227, i64 2
  store ptr %9, ptr %2, align 8, !tbaa !13
  %10 = icmp ult ptr %9, %4
  br i1 %10, label %.lr.ph38.i, label %.loopexit16thread-pre-split

.lr.ph38.i:                                       ; preds = %8, %12
  %storemerge2137.i = phi ptr [ %11, %12 ], [ %9, %8 ]
  %.val23.val.i = load i8, ptr %storemerge2137.i, align 1, !tbaa !20
  %.not29.i = icmp eq i8 %.val23.val.i, 10
  %11 = getelementptr inbounds nuw i8, ptr %storemerge2137.i, i64 1
  br i1 %.not29.i, label %.backedge, label %12

12:                                               ; preds = %.lr.ph38.i
  store ptr %11, ptr %2, align 8, !tbaa !13
  %exitcond44.not.i = icmp eq ptr %11, %4
  br i1 %exitcond44.not.i, label %.loopexit16thread-pre-split, label %.lr.ph38.i, !llvm.loop !24

13:                                               ; preds = %6
  %14 = getelementptr inbounds nuw i8, ptr %.val8.i2227, i64 2
  store ptr %14, ptr %2, align 8, !tbaa !13
  %15 = icmp ult ptr %14, %4
  br i1 %15, label %.lr.ph.i, label %.loopexit16thread-pre-split

.lr.ph.i:                                         ; preds = %13, %20
  %storemerge36.i = phi ptr [ %21, %20 ], [ %14, %13 ]
  %.val.val.i = load i8, ptr %storemerge36.i, align 1, !tbaa !20
  %.not31.i = icmp eq i8 %.val.val.i, 42
  br i1 %.not31.i, label %16, label %20

16:                                               ; preds = %.lr.ph.i
  %17 = getelementptr i8, ptr %storemerge36.i, i64 1
  %.val27.val.i = load i8, ptr %17, align 1, !tbaa !20
  %.not32.i = icmp eq i8 %.val27.val.i, 47
  br i1 %.not32.i, label %18, label %20

18:                                               ; preds = %16
  %19 = getelementptr inbounds nuw i8, ptr %storemerge36.i, i64 2
  br label %.backedge

20:                                               ; preds = %16, %.lr.ph.i
  %21 = getelementptr inbounds nuw i8, ptr %storemerge36.i, i64 1
  store ptr %21, ptr %2, align 8, !tbaa !13
  %exitcond.not.i = icmp eq ptr %21, %4
  br i1 %exitcond.not.i, label %.loopexit16thread-pre-split, label %.lr.ph.i, !llvm.loop !25

.loopexit16thread-pre-split:                      ; preds = %20, %12, %13, %8
  %.val8.i21.ph = phi ptr [ %14, %13 ], [ %9, %8 ], [ %11, %12 ], [ %21, %20 ]
  %.val8.val.i.pr = load i8, ptr %.val8.i21.ph, align 1, !tbaa !20
  br label %.loopexit16

.loopexit16:                                      ; preds = %.loopexit16thread-pre-split, %.lr.ph
  %.val8.val.i = phi i8 [ %.val8.val.i.pr, %.loopexit16thread-pre-split ], [ %.val.val, %.lr.ph ]
  %.val8.i21 = phi ptr [ %.val8.i21.ph, %.loopexit16thread-pre-split ], [ %.val8.i2227, %.lr.ph ]
  %.not.i9 = icmp eq i8 %.val8.val.i, 92
  br i1 %.not.i9, label %.preheader.i, label %.loopexit

.preheader.i:                                     ; preds = %.loopexit16, %23
  %storemerge11.i = phi ptr [ %storemerge.i, %23 ], [ %.val8.i21, %.loopexit16 ]
  %storemerge.i = getelementptr inbounds nuw i8, ptr %storemerge11.i, i64 1
  store ptr %storemerge.i, ptr %2, align 8, !tbaa !13
  %22 = icmp ult ptr %storemerge.i, %4
  br i1 %22, label %23, label %.loopexit

23:                                               ; preds = %.preheader.i
  %.val.val.i11 = load i8, ptr %storemerge.i, align 1, !tbaa !20
  %.not9.i = icmp eq i8 %.val.val.i11, 32
  br i1 %.not9.i, label %Psr_ManUtilSkipName.exit, label %.preheader.i, !llvm.loop !69

Psr_ManUtilSkipName.exit:                         ; preds = %23
  %24 = getelementptr inbounds nuw i8, ptr %storemerge11.i, i64 2
  br label %.backedge

.loopexit:                                        ; preds = %.preheader.i, %6, %.loopexit16
  %.val8.i24 = phi ptr [ %.val8.i21, %.loopexit16 ], [ %.val8.i2227, %6 ], [ %storemerge.i, %.preheader.i ]
  %25 = getelementptr inbounds nuw i8, ptr %.val8.i24, i64 1
  br label %.backedge

.backedge:                                        ; preds = %.lr.ph38.i, %18, %.loopexit, %Psr_ManUtilSkipName.exit
  %.sink = phi ptr [ %25, %.loopexit ], [ %24, %Psr_ManUtilSkipName.exit ], [ %19, %18 ], [ %11, %.lr.ph38.i ]
  store ptr %.sink, ptr %2, align 8, !tbaa !13
  %26 = icmp ult ptr %.sink, %4
  br i1 %26, label %.lr.ph, label %._crit_edge, !llvm.loop !70

._crit_edge:                                      ; preds = %.backedge, %.lr.ph, %1
  %.0 = phi i32 [ 0, %1 ], [ 1, %.lr.ph ], [ 0, %.backedge ]
  ret i32 %.0
}